; Function Attrs: mustprogress uwtable
define noundef double @_ZNK8QuantLib18ImpliedStdDevQuote5valueEv(ptr noundef nonnull align 8 dereferenceable(96) %this) unnamed_addr #8 align 2 {
entry:
  %add.ptr = getelementptr inbounds i8, ptr %this, i64 8
  %vtable = load ptr, ptr %add.ptr, align 8, !tbaa !33
  %vfn = getelementptr inbounds i8, ptr %vtable, i64 24
  %0 = load ptr, ptr %vfn, align 8
  tail call void %0(ptr noundef nonnull align 8 dereferenceable(12) %add.ptr)
  %impliedStdev_ = getelementptr inbounds nuw i8, ptr %this, i64 24
  %1 = load double, ptr %impliedStdev_, align 8, !tbaa !46
  ret double %1
}